target datalayout = "e-m:e-p270:32:32-p271:32:32-p272:64:64-i64:64-i128:128-f80:128-n8:16:32:64-S128"
target triple = "x86_64-pc-linux-gnu"

@.str.22 = private unnamed_addr constant [2 x i8] c"\0A\00", align 1
@.str.23 = private unnamed_addr constant [25 x i8] c"KINGetNumNonlinSolvIters\00", align 1
@.str.24 = private unnamed_addr constant [19 x i8] c"KINGetNumFuncEvals\00", align 1
@.str.25 = private unnamed_addr constant [23 x i8] c"KINGetNumBetacondFails\00", align 1
@.str.26 = private unnamed_addr constant [22 x i8] c"KINGetNumBacktrackOps\00", align 1
@.str.27 = private unnamed_addr constant [16 x i8] c"KINGetWorkSpace\00", align 1
@.str.28 = private unnamed_addr constant [18 x i8] c"KINGetNumJacEvals\00", align 1
@.str.29 = private unnamed_addr constant [22 x i8] c"KINGetNumLinFuncEvals\00", align 1
@.str.30 = private unnamed_addr constant [19 x i8] c"KINGetLinWorkSpace\00", align 1
@.str.31 = private unnamed_addr constant [23 x i8] c"\0AFinal Statistics.. \0A\0A\00", align 1
@.str.32 = private unnamed_addr constant [36 x i8] c"nni      = %6ld    nfe     = %6ld \0A\00", align 1
@.str.33 = private unnamed_addr constant [36 x i8] c"nbcfails = %6ld    nbacktr = %6ld \0A\00", align 1
@.str.34 = private unnamed_addr constant [36 x i8] c"nje      = %6ld    nfeB    = %6ld \0A\00", align 1
@.str.35 = private unnamed_addr constant [36 x i8] c"lenrw    = %6ld    leniw   = %6ld \0A\00", align 1
@.str.36 = private unnamed_addr constant [36 x i8] c"lenrwB   = %6ld    leniwB  = %6ld \0A\00", align 1
@stderr = external global ptr, align 8
@.str.37 = private unnamed_addr constant [55 x i8] c"\0ASUNDIALS_ERROR: %s() failed - returned NULL pointer\0A\0A\00", align 1
@.str.38 = private unnamed_addr constant [48 x i8] c"\0ASUNDIALS_ERROR: %s() failed with retval = %d\0A\0A\00", align 1
@.str.39 = private unnamed_addr constant [53 x i8] c"\0AMEMORY_ERROR: %s() failed - returned NULL pointer\0A\0A\00", align 1

; Function Attrs: nounwind uwtable
define internal i32 @check_retval(ptr noundef %0, ptr noundef %1, i32 noundef %2) #0 {
  %4 = alloca i32, align 4
  %5 = alloca ptr, align 8
  %6 = alloca ptr, align 8
  %7 = alloca i32, align 4
  %8 = alloca ptr, align 8
  %9 = alloca i32, align 4
  store ptr %0, ptr %5, align 8, !tbaa !9
  store ptr %1, ptr %6, align 8, !tbaa !20
  store i32 %2, ptr %7, align 4, !tbaa !14
  call void @llvm.lifetime.start.p0(i64 8, ptr %8) #5
  %10 = load i32, ptr %7, align 4, !tbaa !14
  %11 = icmp eq i32 %10, 0
  br i1 %11, label %12, label %19

12:                                               ; preds = %3
  %13 = load ptr, ptr %5, align 8, !tbaa !9
  %14 = icmp eq ptr %13, null
  br i1 %14, label %15, label %19

15:                                               ; preds = %12
  %16 = load ptr, ptr @stderr, align 8, !tbaa !22
  %17 = load ptr, ptr %6, align 8, !tbaa !20
  %18 = call i32 (ptr, ptr, ...) @fprintf(ptr noundef %16, ptr noundef @.str.37, ptr noundef %17) #5
  store i32 1, ptr %4, align 4
  store i32 1, ptr %9, align 4
  br label %47

19:                                               ; preds = %12, %3
  %20 = load i32, ptr %7, align 4, !tbaa !14
  %21 = icmp eq i32 %20, 1
  br i1 %21, label %22, label %34

22:                                               ; preds = %19
  %23 = load ptr, ptr %5, align 8, !tbaa !9
  store ptr %23, ptr %8, align 8, !tbaa !24
  %24 = load ptr, ptr %8, align 8, !tbaa !24
  %25 = load i32, ptr %24, align 4, !tbaa !14
  %26 = icmp slt i32 %25, 0
  br i1 %26, label %27, label %33

27:                                               ; preds = %22
  %28 = load ptr, ptr @stderr, align 8, !tbaa !22
  %29 = load ptr, ptr %6, align 8, !tbaa !20
  %30 = load ptr, ptr %8, align 8, !tbaa !24
  %31 = load i32, ptr %30, align 4, !tbaa !14
  %32 = call i32 (ptr, ptr, ...) @fprintf(ptr noundef %28, ptr noundef @.str.38, ptr noundef %29, i32 noundef %31) #5
  store i32 1, ptr %4, align 4
  store i32 1, ptr %9, align 4
  br label %47

33:                                               ; preds = %22
  br label %45

34:                                               ; preds = %19
  %35 = load i32, ptr %7, align 4, !tbaa !14
  %36 = icmp eq i32 %35, 2
  br i1 %36, label %37, label %44

37:                                               ; preds = %34
  %38 = load ptr, ptr %5, align 8, !tbaa !9
  %39 = icmp eq ptr %38, null
  br i1 %39, label %40, label %44

40:                                               ; preds = %37
  %41 = load ptr, ptr @stderr, align 8, !tbaa !22
  %42 = load ptr, ptr %6, align 8, !tbaa !20
  %43 = call i32 (ptr, ptr, ...) @fprintf(ptr noundef %41, ptr noundef @.str.39, ptr noundef %42) #5
  store i32 1, ptr %4, align 4
  store i32 1, ptr %9, align 4
  br label %47

44:                                               ; preds = %37, %34
  br label %45

45:                                               ; preds = %44, %33
  br label %46

46:                                               ; preds = %45
  store i32 0, ptr %4, align 4
  store i32 1, ptr %9, align 4
  br label %47

47:                                               ; preds = %46, %40, %27, %15
  call void @llvm.lifetime.end.p0(i64 8, ptr %8) #5
  %48 = load i32, ptr %4, align 4
  ret i32 %48
}

; Function Attrs: nounwind uwtable
define internal void @PrintFinalStats(ptr noundef %0) #0 {
  %2 = alloca ptr, align 8
  %3 = alloca i64, align 8
  %4 = alloca i64, align 8
  %5 = alloca i64, align 8
  %6 = alloca i64, align 8
  %7 = alloca i64, align 8
  %8 = alloca i64, align 8
  %9 = alloca i64, align 8
  %10 = alloca i64, align 8
  %11 = alloca i64, align 8
  %12 = alloca i64, align 8
  %13 = alloca i32, align 4
  store ptr %0, ptr %2, align 8, !tbaa !9
  call void @llvm.lifetime.start.p0(i64 8, ptr %3) #5
  call void @llvm.lifetime.start.p0(i64 8, ptr %4) #5
  call void @llvm.lifetime.start.p0(i64 8, ptr %5) #5
  call void @llvm.lifetime.start.p0(i64 8, ptr %6) #5
  call void @llvm.lifetime.start.p0(i64 8, ptr %7) #5
  call void @llvm.lifetime.start.p0(i64 8, ptr %8) #5
  call void @llvm.lifetime.start.p0(i64 8, ptr %9) #5
  call void @llvm.lifetime.start.p0(i64 8, ptr %10) #5
  call void @llvm.lifetime.start.p0(i64 8, ptr %11) #5
  call void @llvm.lifetime.start.p0(i64 8, ptr %12) #5
  call void @llvm.lifetime.start.p0(i64 4, ptr %13) #5
  %14 = load ptr, ptr %2, align 8, !tbaa !9
  %15 = call i32 @KINGetNumNonlinSolvIters(ptr noundef %14, ptr noundef %3)
  store i32 %15, ptr %13, align 4, !tbaa !14
  %16 = call i32 @check_retval(ptr noundef %13, ptr noundef @.str.23, i32 noundef 1)
  %17 = load ptr, ptr %2, align 8, !tbaa !9
  %18 = call i32 @KINGetNumFuncEvals(ptr noundef %17, ptr noundef %4)
  store i32 %18, ptr %13, align 4, !tbaa !14
  %19 = call i32 @check_retval(ptr noundef %13, ptr noundef @.str.24, i32 noundef 1)
  %20 = load ptr, ptr %2, align 8, !tbaa !9
  %21 = call i32 @KINGetNumBetaCondFails(ptr noundef %20, ptr noundef %11)
  store i32 %21, ptr %13, align 4, !tbaa !14
  %22 = call i32 @check_retval(ptr noundef %13, ptr noundef @.str.25, i32 noundef 1)
  %23 = load ptr, ptr %2, align 8, !tbaa !9
  %24 = call i32 @KINGetNumBacktrackOps(ptr noundef %23, ptr noundef %12)
  store i32 %24, ptr %13, align 4, !tbaa !14
  %25 = call i32 @check_retval(ptr noundef %13, ptr noundef @.str.26, i32 noundef 1)
  %26 = load ptr, ptr %2, align 8, !tbaa !9
  %27 = call i32 @KINGetWorkSpace(ptr noundef %26, ptr noundef %7, ptr noundef %8)
  store i32 %27, ptr %13, align 4, !tbaa !14
  %28 = call i32 @check_retval(ptr noundef %13, ptr noundef @.str.27, i32 noundef 1)
  %29 = load ptr, ptr %2, align 8, !tbaa !9
  %30 = call i32 @KINGetNumJacEvals(ptr noundef %29, ptr noundef %5)
  store i32 %30, ptr %13, align 4, !tbaa !14
  %31 = call i32 @check_retval(ptr noundef %13, ptr noundef @.str.28, i32 noundef 1)
  %32 = load ptr, ptr %2, align 8, !tbaa !9
  %33 = call i32 @KINGetNumLinFuncEvals(ptr noundef %32, ptr noundef %6)
  store i32 %33, ptr %13, align 4, !tbaa !14
  %34 = call i32 @check_retval(ptr noundef %13, ptr noundef @.str.29, i32 noundef 1)
  %35 = load ptr, ptr %2, align 8, !tbaa !9
  %36 = call i32 @KINGetLinWorkSpace(ptr noundef %35, ptr noundef %9, ptr noundef %10)
  store i32 %36, ptr %13, align 4, !tbaa !14
  %37 = call i32 @check_retval(ptr noundef %13, ptr noundef @.str.30, i32 noundef 1)
  %38 = call i32 (ptr, ...) @printf(ptr noundef @.str.31)
  %39 = load i64, ptr %3, align 8, !tbaa !28
  %40 = load i64, ptr %4, align 8, !tbaa !28
  %41 = call i32 (ptr, ...) @printf(ptr noundef @.str.32, i64 noundef %39, i64 noundef %40)
  %42 = load i64, ptr %11, align 8, !tbaa !28
  %43 = load i64, ptr %12, align 8, !tbaa !28
  %44 = call i32 (ptr, ...) @printf(ptr noundef @.str.33, i64 noundef %42, i64 noundef %43)
  %45 = load i64, ptr %5, align 8, !tbaa !28
  %46 = load i64, ptr %6, align 8, !tbaa !28
  %47 = call i32 (ptr, ...) @printf(ptr noundef @.str.34, i64 noundef %45, i64 noundef %46)
  %48 = call i32 (ptr, ...) @printf(ptr noundef @.str.22)
  %49 = load i64, ptr %7, align 8, !tbaa !28
  %50 = load i64, ptr %8, align 8, !tbaa !28
  %51 = call i32 (ptr, ...) @printf(ptr noundef @.str.35, i64 noundef %49, i64 noundef %50)
  %52 = load i64, ptr %9, align 8, !tbaa !28
  %53 = load i64, ptr %10, align 8, !tbaa !28
  %54 = call i32 (ptr, ...) @printf(ptr noundef @.str.36, i64 noundef %52, i64 noundef %53)
  call void @llvm.lifetime.end.p0(i64 4, ptr %13) #5
  call void @llvm.lifetime.end.p0(i64 8, ptr %12) #5
  call void @llvm.lifetime.end.p0(i64 8, ptr %11) #5
  call void @llvm.lifetime.end.p0(i64 8, ptr %10) #5
  call void @llvm.lifetime.end.p0(i64 8, ptr %9) #5
  call void @llvm.lifetime.end.p0(i64 8, ptr %8) #5
  call void @llvm.lifetime.end.p0(i64 8, ptr %7) #5
  call void @llvm.lifetime.end.p0(i64 8, ptr %6) #5
  call void @llvm.lifetime.end.p0(i64 8, ptr %5) #5
  call void @llvm.lifetime.end.p0(i64 8, ptr %4) #5
  call void @llvm.lifetime.end.p0(i64 8, ptr %3) #5
  ret void
}