; Function Attrs: nounwind uwtable
define internal fastcc void @PrintFinalStats(ptr noundef %0) unnamed_addr #0 {
  %2 = alloca i64, align 8
  %3 = alloca i64, align 8
  %4 = alloca i64, align 8
  %5 = alloca i64, align 8
  %6 = alloca i64, align 8
  %7 = alloca i64, align 8
  %8 = alloca i64, align 8
  %9 = alloca i64, align 8
  %10 = alloca i64, align 8
  %11 = alloca i64, align 8
  call void @llvm.lifetime.start.p0(i64 8, ptr nonnull %2) #6
  call void @llvm.lifetime.start.p0(i64 8, ptr nonnull %3) #6
  call void @llvm.lifetime.start.p0(i64 8, ptr nonnull %4) #6
  call void @llvm.lifetime.start.p0(i64 8, ptr nonnull %5) #6
  call void @llvm.lifetime.start.p0(i64 8, ptr nonnull %6) #6
  call void @llvm.lifetime.start.p0(i64 8, ptr nonnull %7) #6
  call void @llvm.lifetime.start.p0(i64 8, ptr nonnull %8) #6
  call void @llvm.lifetime.start.p0(i64 8, ptr nonnull %9) #6
  call void @llvm.lifetime.start.p0(i64 8, ptr nonnull %10) #6
  call void @llvm.lifetime.start.p0(i64 8, ptr nonnull %11) #6
  %12 = call i32 @KINGetNumNonlinSolvIters(ptr noundef %0, ptr noundef nonnull %2) #6
  %13 = icmp slt i32 %12, 0
  br i1 %13, label %14, label %check_retval.exit

14:                                               ; preds = %1
  %15 = load ptr, ptr @stderr, align 8, !tbaa !4
  %16 = call i32 (ptr, ptr, ...) @fprintf(ptr noundef %15, ptr noundef nonnull @.str.38, ptr noundef nonnull @.str.23, i32 noundef %12) #7
  br label %check_retval.exit

check_retval.exit:                                ; preds = %1, %14
  %17 = call i32 @KINGetNumFuncEvals(ptr noundef %0, ptr noundef nonnull %3) #6
  %18 = icmp slt i32 %17, 0
  br i1 %18, label %19, label %check_retval.exit9

19:                                               ; preds = %check_retval.exit
  %20 = load ptr, ptr @stderr, align 8, !tbaa !4
  %21 = call i32 (ptr, ptr, ...) @fprintf(ptr noundef %20, ptr noundef nonnull @.str.38, ptr noundef nonnull @.str.24, i32 noundef %17) #7
  br label %check_retval.exit9

check_retval.exit9:                               ; preds = %check_retval.exit, %19
  %22 = call i32 @KINGetNumBetaCondFails(ptr noundef %0, ptr noundef nonnull %10) #6
  %23 = icmp slt i32 %22, 0
  br i1 %23, label %24, label %check_retval.exit11

24:                                               ; preds = %check_retval.exit9
  %25 = load ptr, ptr @stderr, align 8, !tbaa !4
  %26 = call i32 (ptr, ptr, ...) @fprintf(ptr noundef %25, ptr noundef nonnull @.str.38, ptr noundef nonnull @.str.25, i32 noundef %22) #7
  br label %check_retval.exit11

check_retval.exit11:                              ; preds = %check_retval.exit9, %24
  %27 = call i32 @KINGetNumBacktrackOps(ptr noundef %0, ptr noundef nonnull %11) #6
  %28 = icmp slt i32 %27, 0
  br i1 %28, label %29, label %check_retval.exit13

29:                                               ; preds = %check_retval.exit11
  %30 = load ptr, ptr @stderr, align 8, !tbaa !4
  %31 = call i32 (ptr, ptr, ...) @fprintf(ptr noundef %30, ptr noundef nonnull @.str.38, ptr noundef nonnull @.str.26, i32 noundef %27) #7
  br label %check_retval.exit13

check_retval.exit13:                              ; preds = %check_retval.exit11, %29
  %32 = call i32 @KINGetWorkSpace(ptr noundef %0, ptr noundef nonnull %6, ptr noundef nonnull %7) #6
  %33 = icmp slt i32 %32, 0
  br i1 %33, label %34, label %check_retval.exit15

34:                                               ; preds = %check_retval.exit13
  %35 = load ptr, ptr @stderr, align 8, !tbaa !4
  %36 = call i32 (ptr, ptr, ...) @fprintf(ptr noundef %35, ptr noundef nonnull @.str.38, ptr noundef nonnull @.str.27, i32 noundef %32) #7
  br label %check_retval.exit15

check_retval.exit15:                              ; preds = %check_retval.exit13, %34
  %37 = call i32 @KINGetNumJacEvals(ptr noundef %0, ptr noundef nonnull %4) #6
  %38 = icmp slt i32 %37, 0
  br i1 %38, label %39, label %check_retval.exit17

39:                                               ; preds = %check_retval.exit15
  %40 = load ptr, ptr @stderr, align 8, !tbaa !4
  %41 = call i32 (ptr, ptr, ...) @fprintf(ptr noundef %40, ptr noundef nonnull @.str.38, ptr noundef nonnull @.str.28, i32 noundef %37) #7
  br label %check_retval.exit17

check_retval.exit17:                              ; preds = %check_retval.exit15, %39
  %42 = call i32 @KINGetNumLinFuncEvals(ptr noundef %0, ptr noundef nonnull %5) #6
  %43 = icmp slt i32 %42, 0
  br i1 %43, label %44, label %check_retval.exit19

44:                                               ; preds = %check_retval.exit17
  %45 = load ptr, ptr @stderr, align 8, !tbaa !4
  %46 = call i32 (ptr, ptr, ...) @fprintf(ptr noundef %45, ptr noundef nonnull @.str.38, ptr noundef nonnull @.str.29, i32 noundef %42) #7
  br label %check_retval.exit19

check_retval.exit19:                              ; preds = %check_retval.exit17, %44
  %47 = call i32 @KINGetLinWorkSpace(ptr noundef %0, ptr noundef nonnull %8, ptr noundef nonnull %9) #6
  %48 = icmp slt i32 %47, 0
  br i1 %48, label %49, label %check_retval.exit21

49:                                               ; preds = %check_retval.exit19
  %50 = load ptr, ptr @stderr, align 8, !tbaa !4
  %51 = call i32 (ptr, ptr, ...) @fprintf(ptr noundef %50, ptr noundef nonnull @.str.38, ptr noundef nonnull @.str.30, i32 noundef %47) #7
  br label %check_retval.exit21

check_retval.exit21:                              ; preds = %check_retval.exit19, %49
  %puts = call i32 @puts(ptr nonnull dereferenceable(1) @str.5)
  %52 = load i64, ptr %2, align 8, !tbaa !14
  %53 = load i64, ptr %3, align 8, !tbaa !14
  %54 = call i32 (ptr, ...) @printf(ptr noundef nonnull dereferenceable(1) @.str.32, i64 noundef %52, i64 noundef %53)
  %55 = load i64, ptr %10, align 8, !tbaa !14
  %56 = load i64, ptr %11, align 8, !tbaa !14
  %57 = call i32 (ptr, ...) @printf(ptr noundef nonnull dereferenceable(1) @.str.33, i64 noundef %55, i64 noundef %56)
  %58 = load i64, ptr %4, align 8, !tbaa !14
  %59 = load i64, ptr %5, align 8, !tbaa !14
  %60 = call i32 (ptr, ...) @printf(ptr noundef nonnull dereferenceable(1) @.str.34, i64 noundef %58, i64 noundef %59)
  %putchar = call i32 @putchar(i32 10)
  %61 = load i64, ptr %6, align 8, !tbaa !14
  %62 = load i64, ptr %7, align 8, !tbaa !14
  %63 = call i32 (ptr, ...) @printf(ptr noundef nonnull dereferenceable(1) @.str.35, i64 noundef %61, i64 noundef %62)
  %64 = load i64, ptr %8, align 8, !tbaa !14
  %65 = load i64, ptr %9, align 8, !tbaa !14
  %66 = call i32 (ptr, ...) @printf(ptr noundef nonnull dereferenceable(1) @.str.36, i64 noundef %64, i64 noundef %65)
  call void @llvm.lifetime.end.p0(i64 8, ptr nonnull %11) #6
  call void @llvm.lifetime.end.p0(i64 8, ptr nonnull %10) #6
  call void @llvm.lifetime.end.p0(i64 8, ptr nonnull %9) #6
  call void @llvm.lifetime.end.p0(i64 8, ptr nonnull %8) #6
  call void @llvm.lifetime.end.p0(i64 8, ptr nonnull %7) #6
  call void @llvm.lifetime.end.p0(i64 8, ptr nonnull %6) #6
  call void @llvm.lifetime.end.p0(i64 8, ptr nonnull %5) #6
  call void @llvm.lifetime.end.p0(i64 8, ptr nonnull %4) #6
  call void @llvm.lifetime.end.p0(i64 8, ptr nonnull %3) #6
  call void @llvm.lifetime.end.p0(i64 8, ptr nonnull %2) #6
  ret void
}